target datalayout = "e-m:e-p270:32:32-p271:32:32-p272:64:64-i64:64-i128:128-f80:128-n8:16:32:64-S128"
target triple = "x86_64-pc-linux-gnu"

%struct.RelationData = type { %struct.RelFileLocator, ptr, i32, i32, i8, i8, i8, i8, i8, i32, i32, i32, i32, ptr, ptr, i32, %struct.LockInfoData, ptr, ptr, ptr, ptr, ptr, i8, ptr, ptr, ptr, ptr, ptr, ptr, i32, ptr, i8, ptr, ptr, i32, i8, i32, ptr, i8, ptr, ptr, ptr, ptr, ptr, ptr, ptr, i32, ptr, ptr, ptr, ptr, ptr, ptr, ptr, ptr, ptr, ptr, ptr, ptr, ptr, ptr, ptr, ptr, ptr, ptr, ptr, i32, i8, ptr }
%struct.RelFileLocator = type { i32, i32, i32 }
%struct.LockInfoData = type { %struct.LockRelId }
%struct.LockRelId = type { i32, i32 }
%struct.FunctionCallInfoBaseData = type { ptr, ptr, ptr, i32, i8, i16, [0 x %struct.NullableDatum] }
%struct.NullableDatum = type { i64, i8 }
%struct.ObjectPropertyType = type { ptr, i32, i32, i32, i32, i16, i16, i16, i16, i16, i32, i8 }

@.str.1 = private unnamed_addr constant [16 x i8] c"objectaddress.c\00", align 1
@get_object_property_data.prop_last = internal global ptr null, align 8
@.str.229 = private unnamed_addr constant [26 x i8] c"unrecognized class ID: %u\00", align 1
@__func__.get_object_property_data = private unnamed_addr constant [25 x i8] c"get_object_property_data\00", align 1

; Function Attrs: nounwind uwtable
define internal ptr @get_object_property_data(i32 noundef %0) #0 {
  %2 = alloca ptr, align 8
  %3 = alloca i32, align 4
  %4 = alloca i32, align 4
  %5 = alloca i32, align 4
  store i32 %0, ptr %3, align 4
  call void @llvm.lifetime.start.p0(i64 4, ptr %4) #10
  %6 = load ptr, ptr @get_object_property_data.prop_last, align 8
  %7 = icmp ne ptr %6, null
  br i1 %7, label %8, label %16

8:                                                ; preds = %1
  %9 = load ptr, ptr @get_object_property_data.prop_last, align 8
  %10 = getelementptr inbounds nuw %struct.ObjectPropertyType, ptr %9, i32 0, i32 1
  %11 = load i32, ptr %10, align 8
  %12 = load i32, ptr %3, align 4
  %13 = icmp eq i32 %11, %12
  br i1 %13, label %14, label %16

14:                                               ; preds = %8
  %15 = load ptr, ptr @get_object_property_data.prop_last, align 8
  store ptr %15, ptr %2, align 8
  store i32 1, ptr %5, align 4
  br label %52

16:                                               ; preds = %8, %1
  store i32 0, ptr %4, align 4
  br label %17

17:                                               ; preds = %37, %16
  %18 = load i32, ptr %4, align 4
  %19 = sext i32 %18 to i64
  %20 = icmp ult i64 %19, 37
  br i1 %20, label %21, label %40

21:                                               ; preds = %17
  %22 = load i32, ptr %4, align 4
  %23 = sext i32 %22 to i64
  %24 = getelementptr inbounds [37 x %struct.ObjectPropertyType], ptr @ObjectProperty, i64 0, i64 %23
  %25 = getelementptr inbounds nuw %struct.ObjectPropertyType, ptr %24, i32 0, i32 1
  %26 = load i32, ptr %25, align 8
  %27 = load i32, ptr %3, align 4
  %28 = icmp eq i32 %26, %27
  br i1 %28, label %29, label %36

29:                                               ; preds = %21
  %30 = load i32, ptr %4, align 4
  %31 = sext i32 %30 to i64
  %32 = getelementptr inbounds [37 x %struct.ObjectPropertyType], ptr @ObjectProperty, i64 0, i64 %31
  store ptr %32, ptr @get_object_property_data.prop_last, align 8
  %33 = load i32, ptr %4, align 4
  %34 = sext i32 %33 to i64
  %35 = getelementptr inbounds [37 x %struct.ObjectPropertyType], ptr @ObjectProperty, i64 0, i64 %34
  store ptr %35, ptr %2, align 8
  store i32 1, ptr %5, align 4
  br label %52

36:                                               ; preds = %21
  br label %37

37:                                               ; preds = %36
  %38 = load i32, ptr %4, align 4
  %39 = add i32 %38, 1
  store i32 %39, ptr %4, align 4
  br label %17, !llvm.loop !11

40:                                               ; preds = %17
  br label %41

41:                                               ; preds = %40
  br i1 true, label %42, label %44

42:                                               ; preds = %41
  %43 = call zeroext i1 @errstart_cold(i32 noundef 21, ptr noundef null) #11
  br i1 %43, label %46, label %49

44:                                               ; preds = %41
  %45 = call zeroext i1 @errstart(i32 noundef 21, ptr noundef null)
  br i1 %45, label %46, label %49

46:                                               ; preds = %44, %42
  %47 = load i32, ptr %3, align 4
  %48 = call i32 (ptr, ...) @errmsg_internal(ptr noundef @.str.229, i32 noundef %47)
  call void @errfinish(ptr noundef @.str.1, i32 noundef 2773, ptr noundef @__func__.get_object_property_data)
  br label %49

49:                                               ; preds = %46, %44, %42
  unreachable

50:                                               ; No predecessors!
  br label %51

51:                                               ; preds = %50
  store ptr null, ptr %2, align 8
  store i32 1, ptr %5, align 4
  br label %52

52:                                               ; preds = %51, %29, %14
  call void @llvm.lifetime.end.p0(i64 4, ptr %4) #10
  %53 = load ptr, ptr %2, align 8
  ret ptr %53
}

; Function Attrs: nounwind uwtable
define dso_local ptr @get_catalog_object_by_oid(ptr noundef %0, i16 noundef signext %1, i32 noundef %2) #0 {
  %4 = alloca ptr, align 8
  %5 = alloca i16, align 2
  %6 = alloca i32, align 4
  store ptr %0, ptr %4, align 8
  store i16 %1, ptr %5, align 2
  store i32 %2, ptr %6, align 4
  %7 = load ptr, ptr %4, align 8
  %8 = load i16, ptr %5, align 2
  %9 = load i32, ptr %6, align 4
  %10 = call ptr @get_catalog_object_by_oid_extended(ptr noundef %7, i16 noundef signext %8, i32 noundef %9, i1 noundef zeroext false)
  ret ptr %10
}

; Function Attrs: nounwind uwtable
define dso_local signext i16 @get_object_attnum_oid(i32 noundef %0) #0 {
  %2 = alloca i32, align 4
  %3 = alloca ptr, align 8
  store i32 %0, ptr %2, align 4
  call void @llvm.lifetime.start.p0(i64 8, ptr %3) #10
  %4 = load i32, ptr %2, align 4
  %5 = call ptr @get_object_property_data(i32 noundef %4)
  store ptr %5, ptr %3, align 8
  %6 = load ptr, ptr %3, align 8
  %7 = getelementptr inbounds nuw %struct.ObjectPropertyType, ptr %6, i32 0, i32 5
  %8 = load i16, ptr %7, align 8
  call void @llvm.lifetime.end.p0(i64 8, ptr %3) #10
  ret i16 %8
}

; Function Attrs: nounwind uwtable
define dso_local signext i16 @get_object_attnum_acl(i32 noundef %0) #0 {
  %2 = alloca i32, align 4
  %3 = alloca ptr, align 8
  store i32 %0, ptr %2, align 4
  call void @llvm.lifetime.start.p0(i64 8, ptr %3) #10
  %4 = load i32, ptr %2, align 4
  %5 = call ptr @get_object_property_data(i32 noundef %4)
  store ptr %5, ptr %3, align 8
  %6 = load ptr, ptr %3, align 8
  %7 = getelementptr inbounds nuw %struct.ObjectPropertyType, ptr %6, i32 0, i32 9
  %8 = load i16, ptr %7, align 8
  call void @llvm.lifetime.end.p0(i64 8, ptr %3) #10
  ret i16 %8
}

; Function Attrs: inlinehint nounwind uwtable
define internal i32 @DatumGetInt32(i64 noundef %0) #4 {
  %2 = alloca i64, align 8
  store i64 %0, ptr %2, align 8
  %3 = load i64, ptr %2, align 8
  %4 = trunc i64 %3 to i32
  ret i32 %4
}

; Function Attrs: inlinehint nounwind uwtable
define internal i32 @DatumGetObjectId(i64 noundef %0) #4 {
  %2 = alloca i64, align 8
  store i64 %0, ptr %2, align 8
  %3 = load i64, ptr %2, align 8
  %4 = trunc i64 %3 to i32
  ret i32 %4
}

; Function Attrs: nounwind uwtable
define dso_local i64 @pg_get_acl(ptr noundef %0) #0 {
  %2 = alloca i64, align 8
  %3 = alloca ptr, align 8
  %4 = alloca i32, align 4
  %5 = alloca i32, align 4
  %6 = alloca i32, align 4
  %7 = alloca i32, align 4
  %8 = alloca i16, align 2
  %9 = alloca i64, align 8
  %10 = alloca i8, align 1
  %11 = alloca ptr, align 8
  %12 = alloca i32, align 4
  %13 = alloca i16, align 2
  %14 = alloca ptr, align 8
  store ptr %0, ptr %3, align 8
  call void @llvm.lifetime.start.p0(i64 4, ptr %4) #10
  %15 = load ptr, ptr %3, align 8
  %16 = getelementptr inbounds nuw %struct.FunctionCallInfoBaseData, ptr %15, i32 0, i32 6
  %17 = getelementptr inbounds [0 x %struct.NullableDatum], ptr %16, i64 0, i64 0
  %18 = getelementptr inbounds nuw %struct.NullableDatum, ptr %17, i32 0, i32 0
  %19 = load i64, ptr %18, align 8
  %20 = call i32 @DatumGetObjectId(i64 noundef %19)
  store i32 %20, ptr %4, align 4
  call void @llvm.lifetime.start.p0(i64 4, ptr %5) #10
  %21 = load ptr, ptr %3, align 8
  %22 = getelementptr inbounds nuw %struct.FunctionCallInfoBaseData, ptr %21, i32 0, i32 6
  %23 = getelementptr inbounds [0 x %struct.NullableDatum], ptr %22, i64 0, i64 1
  %24 = getelementptr inbounds nuw %struct.NullableDatum, ptr %23, i32 0, i32 0
  %25 = load i64, ptr %24, align 8
  %26 = call i32 @DatumGetObjectId(i64 noundef %25)
  store i32 %26, ptr %5, align 4
  call void @llvm.lifetime.start.p0(i64 4, ptr %6) #10
  %27 = load ptr, ptr %3, align 8
  %28 = getelementptr inbounds nuw %struct.FunctionCallInfoBaseData, ptr %27, i32 0, i32 6
  %29 = getelementptr inbounds [0 x %struct.NullableDatum], ptr %28, i64 0, i64 2
  %30 = getelementptr inbounds nuw %struct.NullableDatum, ptr %29, i32 0, i32 0
  %31 = load i64, ptr %30, align 8
  %32 = call i32 @DatumGetInt32(i64 noundef %31)
  store i32 %32, ptr %6, align 4
  call void @llvm.lifetime.start.p0(i64 4, ptr %7) #10
  call void @llvm.lifetime.start.p0(i64 2, ptr %8) #10
  call void @llvm.lifetime.start.p0(i64 8, ptr %9) #10
  call void @llvm.lifetime.start.p0(i64 1, ptr %10) #10
  call void @llvm.lifetime.start.p0(i64 8, ptr %11) #10
  %33 = load i32, ptr %4, align 4
  %34 = icmp ne i32 %33, 0
  br i1 %34, label %44, label %35

35:                                               ; preds = %1
  %36 = load i32, ptr %5, align 4
  %37 = icmp ne i32 %36, 0
  br i1 %37, label %44, label %38

38:                                               ; preds = %35
  br label %39

39:                                               ; preds = %38
  %40 = load ptr, ptr %3, align 8
  %41 = getelementptr inbounds nuw %struct.FunctionCallInfoBaseData, ptr %40, i32 0, i32 4
  store i8 1, ptr %41, align 4
  store i64 0, ptr %2, align 8
  store i32 1, ptr %12, align 4
  br label %129

42:                                               ; No predecessors!
  br label %43

43:                                               ; preds = %42
  br label %44

44:                                               ; preds = %43, %35, %1
  %45 = load i32, ptr %4, align 4
  %46 = icmp eq i32 %45, 2613
  br i1 %46, label %47, label %48

47:                                               ; preds = %44
  br label %50

48:                                               ; preds = %44
  %49 = load i32, ptr %4, align 4
  br label %50

50:                                               ; preds = %48, %47
  %51 = phi i32 [ 2995, %47 ], [ %49, %48 ]
  store i32 %51, ptr %7, align 4
  %52 = load i32, ptr %7, align 4
  %53 = call signext i16 @get_object_attnum_acl(i32 noundef %52)
  store i16 %53, ptr %8, align 2
  %54 = load i16, ptr %8, align 2
  %55 = sext i16 %54 to i32
  %56 = icmp eq i32 %55, 0
  br i1 %56, label %57, label %63

57:                                               ; preds = %50
  br label %58

58:                                               ; preds = %57
  %59 = load ptr, ptr %3, align 8
  %60 = getelementptr inbounds nuw %struct.FunctionCallInfoBaseData, ptr %59, i32 0, i32 4
  store i8 1, ptr %60, align 4
  store i64 0, ptr %2, align 8
  store i32 1, ptr %12, align 4
  br label %129

61:                                               ; No predecessors!
  br label %62

62:                                               ; preds = %61
  br label %63

63:                                               ; preds = %62, %50
  %64 = load i32, ptr %4, align 4
  %65 = icmp eq i32 %64, 1259
  br i1 %65, label %66, label %89

66:                                               ; preds = %63
  %67 = load i32, ptr %6, align 4
  %68 = icmp ne i32 %67, 0
  br i1 %68, label %69, label %89

69:                                               ; preds = %66
  call void @llvm.lifetime.start.p0(i64 2, ptr %13) #10
  %70 = load i32, ptr %6, align 4
  %71 = trunc i32 %70 to i16
  store i16 %71, ptr %13, align 2
  %72 = load i32, ptr %5, align 4
  %73 = load i16, ptr %13, align 2
  %74 = call ptr @SearchSysCacheCopyAttNum(i32 noundef %72, i16 noundef signext %73)
  store ptr %74, ptr %11, align 8
  %75 = load ptr, ptr %11, align 8
  %76 = icmp ne ptr %75, null
  br i1 %76, label %83, label %77

77:                                               ; preds = %69
  br label %78

78:                                               ; preds = %77
  %79 = load ptr, ptr %3, align 8
  %80 = getelementptr inbounds nuw %struct.FunctionCallInfoBaseData, ptr %79, i32 0, i32 4
  store i8 1, ptr %80, align 4
  store i64 0, ptr %2, align 8
  store i32 1, ptr %12, align 4
  br label %86

81:                                               ; No predecessors!
  br label %82

82:                                               ; preds = %81
  br label %83

83:                                               ; preds = %82, %69
  %84 = load ptr, ptr %11, align 8
  %85 = call i64 @SysCacheGetAttr(i32 noundef 7, ptr noundef %84, i16 noundef signext 22, ptr noundef %10)
  store i64 %85, ptr %9, align 8
  store i32 0, ptr %12, align 4
  br label %86

86:                                               ; preds = %83, %78
  call void @llvm.lifetime.end.p0(i64 2, ptr %13) #10
  %87 = load i32, ptr %12, align 4
  switch i32 %87, label %129 [
    i32 0, label %88
  ]

88:                                               ; preds = %86
  br label %118

89:                                               ; preds = %66, %63
  call void @llvm.lifetime.start.p0(i64 8, ptr %14) #10
  %90 = load i32, ptr %7, align 4
  %91 = call ptr @table_open(i32 noundef %90, i32 noundef 1)
  store ptr %91, ptr %14, align 8
  %92 = load ptr, ptr %14, align 8
  %93 = load i32, ptr %7, align 4
  %94 = call signext i16 @get_object_attnum_oid(i32 noundef %93)
  %95 = load i32, ptr %5, align 4
  %96 = call ptr @get_catalog_object_by_oid(ptr noundef %92, i16 noundef signext %94, i32 noundef %95)
  store ptr %96, ptr %11, align 8
  %97 = load ptr, ptr %11, align 8
  %98 = icmp ne ptr %97, null
  br i1 %98, label %106, label %99

99:                                               ; preds = %89
  %100 = load ptr, ptr %14, align 8
  call void @table_close(ptr noundef %100, i32 noundef 1)
  br label %101

101:                                              ; preds = %99
  %102 = load ptr, ptr %3, align 8
  %103 = getelementptr inbounds nuw %struct.FunctionCallInfoBaseData, ptr %102, i32 0, i32 4
  store i8 1, ptr %103, align 4
  store i64 0, ptr %2, align 8
  store i32 1, ptr %12, align 4
  br label %115

104:                                              ; No predecessors!
  br label %105

105:                                              ; preds = %104
  br label %106

106:                                              ; preds = %105, %89
  %107 = load ptr, ptr %11, align 8
  %108 = load i16, ptr %8, align 2
  %109 = sext i16 %108 to i32
  %110 = load ptr, ptr %14, align 8
  %111 = getelementptr inbounds nuw %struct.RelationData, ptr %110, i32 0, i32 14
  %112 = load ptr, ptr %111, align 8
  %113 = call i64 @heap_getattr(ptr noundef %107, i32 noundef %109, ptr noundef %112, ptr noundef %10)
  store i64 %113, ptr %9, align 8
  %114 = load ptr, ptr %14, align 8
  call void @table_close(ptr noundef %114, i32 noundef 1)
  store i32 0, ptr %12, align 4
  br label %115

115:                                              ; preds = %106, %101
  call void @llvm.lifetime.end.p0(i64 8, ptr %14) #10
  %116 = load i32, ptr %12, align 4
  switch i32 %116, label %129 [
    i32 0, label %117
  ]

117:                                              ; preds = %115
  br label %118

118:                                              ; preds = %117, %88
  %119 = load i8, ptr %10, align 1, !range !4, !noundef !5
  %120 = trunc i8 %119 to i1
  br i1 %120, label %121, label %127

121:                                              ; preds = %118
  br label %122

122:                                              ; preds = %121
  %123 = load ptr, ptr %3, align 8
  %124 = getelementptr inbounds nuw %struct.FunctionCallInfoBaseData, ptr %123, i32 0, i32 4
  store i8 1, ptr %124, align 4
  store i64 0, ptr %2, align 8
  store i32 1, ptr %12, align 4
  br label %129

125:                                              ; No predecessors!
  br label %126

126:                                              ; preds = %125
  br label %127

127:                                              ; preds = %126, %118
  %128 = load i64, ptr %9, align 8
  store i64 %128, ptr %2, align 8
  store i32 1, ptr %12, align 4
  br label %129

129:                                              ; preds = %127, %122, %115, %86, %58, %39
  call void @llvm.lifetime.end.p0(i64 8, ptr %11) #10
  call void @llvm.lifetime.end.p0(i64 1, ptr %10) #10
  call void @llvm.lifetime.end.p0(i64 8, ptr %9) #10
  call void @llvm.lifetime.end.p0(i64 2, ptr %8) #10
  call void @llvm.lifetime.end.p0(i64 4, ptr %7) #10
  call void @llvm.lifetime.end.p0(i64 4, ptr %6) #10
  call void @llvm.lifetime.end.p0(i64 4, ptr %5) #10
  call void @llvm.lifetime.end.p0(i64 4, ptr %4) #10
  %130 = load i64, ptr %2, align 8
  ret i64 %130
}