; Function Attrs: nounwind uwtable
define dso_local i64 @pg_get_acl(ptr noundef captures(none) %0) local_unnamed_addr #0 {
  %2 = alloca i8, align 1
  %3 = getelementptr inbounds nuw i8, ptr %0, i64 32
  %4 = load i64, ptr %3, align 8
  %5 = trunc i64 %4 to i32
  %6 = getelementptr inbounds nuw i8, ptr %0, i64 48
  %7 = load i64, ptr %6, align 8
  %8 = trunc i64 %7 to i32
  %9 = getelementptr inbounds nuw i8, ptr %0, i64 64
  %10 = load i64, ptr %9, align 8
  call void @llvm.lifetime.start.p0(i64 1, ptr nonnull %2) #11
  %11 = icmp ne i32 %5, 0
  %12 = icmp ne i32 %8, 0
  %or.cond = select i1 %11, i1 true, i1 %12
  br i1 %or.cond, label %13, label %.sink.split

13:                                               ; preds = %1
  %14 = icmp eq i32 %5, 2613
  %15 = select i1 %14, i32 2995, i32 %5
  %16 = load ptr, ptr @get_object_property_data.prop_last, align 8
  %.not.i.i = icmp eq ptr %16, null
  br i1 %.not.i.i, label %.preheader69, label %17

17:                                               ; preds = %13
  %18 = getelementptr inbounds nuw i8, ptr %16, i64 8
  %19 = load i32, ptr %18, align 8
  %20 = icmp eq i32 %19, %15
  br i1 %20, label %get_object_attnum_acl.exit, label %.preheader69

.preheader69:                                     ; preds = %17, %13
  br label %22

21:                                               ; preds = %22
  %indvars.iv.next.i.i = add nuw nsw i64 %indvars.iv.i.i, 1
  %exitcond.not.i.i = icmp eq i64 %indvars.iv.next.i.i, 37
  br i1 %exitcond.not.i.i, label %28, label %22, !llvm.loop !10

22:                                               ; preds = %.preheader69, %21
  %indvars.iv.i.i = phi i64 [ %indvars.iv.next.i.i, %21 ], [ 0, %.preheader69 ]
  %23 = getelementptr inbounds nuw [37 x %struct.ObjectPropertyType], ptr @ObjectProperty, i64 0, i64 %indvars.iv.i.i
  %24 = getelementptr inbounds nuw i8, ptr %23, i64 8
  %25 = load i32, ptr %24, align 8
  %26 = icmp eq i32 %25, %15
  br i1 %26, label %27, label %21

27:                                               ; preds = %22
  store ptr %23, ptr @get_object_property_data.prop_last, align 8
  br label %get_object_attnum_acl.exit

28:                                               ; preds = %21
  %29 = tail call zeroext i1 @errstart_cold(i32 noundef 21, ptr noundef null) #12
  tail call void @llvm.assume(i1 %29)
  %30 = tail call i32 (ptr, ...) @errmsg_internal(ptr noundef nonnull @.str.229, i32 noundef %15) #11
  tail call void @errfinish(ptr noundef nonnull @.str.1, i32 noundef 2773, ptr noundef nonnull @__func__.get_object_property_data) #11
  unreachable

get_object_attnum_acl.exit:                       ; preds = %17, %27
  %.08.i.i = phi ptr [ %23, %27 ], [ %16, %17 ]
  %31 = getelementptr inbounds nuw i8, ptr %.08.i.i, i64 32
  %32 = load i16, ptr %31, align 8
  %33 = sext i16 %32 to i32
  %34 = icmp eq i16 %32, 0
  br i1 %34, label %.sink.split, label %35

35:                                               ; preds = %get_object_attnum_acl.exit
  %36 = icmp eq i32 %5, 1259
  %37 = and i64 %10, 4294967295
  %38 = icmp ne i64 %37, 0
  %or.cond4 = select i1 %36, i1 %38, i1 false
  br i1 %or.cond4, label %39, label %44

39:                                               ; preds = %35
  %40 = trunc i64 %10 to i16
  %41 = tail call ptr @SearchSysCacheCopyAttNum(i32 noundef %8, i16 noundef signext %40) #11
  %.not.not47 = icmp eq ptr %41, null
  br i1 %.not.not47, label %.sink.split, label %42

42:                                               ; preds = %39
  %43 = call i64 @SysCacheGetAttr(i32 noundef 7, ptr noundef nonnull %41, i16 noundef signext 22, ptr noundef nonnull %2) #11
  br label %68

44:                                               ; preds = %35
  %45 = tail call ptr @table_open(i32 noundef %15, i32 noundef 1) #11
  %46 = load ptr, ptr @get_object_property_data.prop_last, align 8
  %.not.i.i48 = icmp eq ptr %46, null
  br i1 %.not.i.i48, label %.preheader, label %47

47:                                               ; preds = %44
  %48 = getelementptr inbounds nuw i8, ptr %46, i64 8
  %49 = load i32, ptr %48, align 8
  %50 = icmp eq i32 %49, %15
  br i1 %50, label %get_object_attnum_oid.exit, label %.preheader

.preheader:                                       ; preds = %47, %44
  br label %52

51:                                               ; preds = %52
  %indvars.iv.next.i.i50 = add nuw nsw i64 %indvars.iv.i.i49, 1
  %exitcond.not.i.i51 = icmp eq i64 %indvars.iv.next.i.i50, 37
  br i1 %exitcond.not.i.i51, label %58, label %52, !llvm.loop !10

52:                                               ; preds = %.preheader, %51
  %indvars.iv.i.i49 = phi i64 [ %indvars.iv.next.i.i50, %51 ], [ 0, %.preheader ]
  %53 = getelementptr inbounds nuw [37 x %struct.ObjectPropertyType], ptr @ObjectProperty, i64 0, i64 %indvars.iv.i.i49
  %54 = getelementptr inbounds nuw i8, ptr %53, i64 8
  %55 = load i32, ptr %54, align 8
  %56 = icmp eq i32 %55, %15
  br i1 %56, label %57, label %51

57:                                               ; preds = %52
  store ptr %53, ptr @get_object_property_data.prop_last, align 8
  br label %get_object_attnum_oid.exit

58:                                               ; preds = %51
  %59 = tail call zeroext i1 @errstart_cold(i32 noundef 21, ptr noundef null) #12
  tail call void @llvm.assume(i1 %59)
  %60 = tail call i32 (ptr, ...) @errmsg_internal(ptr noundef nonnull @.str.229, i32 noundef %15) #11
  tail call void @errfinish(ptr noundef nonnull @.str.1, i32 noundef 2773, ptr noundef nonnull @__func__.get_object_property_data) #11
  unreachable

get_object_attnum_oid.exit:                       ; preds = %47, %57
  %.08.i.i52 = phi ptr [ %53, %57 ], [ %46, %47 ]
  %61 = getelementptr inbounds nuw i8, ptr %.08.i.i52, i64 24
  %62 = load i16, ptr %61, align 8
  %63 = tail call ptr @get_catalog_object_by_oid_extended(ptr noundef %45, i16 noundef signext %62, i32 noundef %8, i1 noundef zeroext false)
  %.not.not = icmp eq ptr %63, null
  br i1 %.not.not, label %.thread54, label %64

.thread54:                                        ; preds = %get_object_attnum_oid.exit
  tail call void @table_close(ptr noundef %45, i32 noundef 1) #11
  br label %.sink.split

64:                                               ; preds = %get_object_attnum_oid.exit
  %65 = getelementptr inbounds nuw i8, ptr %45, i64 64
  %66 = load ptr, ptr %65, align 8
  %67 = call fastcc i64 @heap_getattr(ptr noundef %63, i32 noundef %33, ptr noundef %66, ptr noundef %2)
  call void @table_close(ptr noundef %45, i32 noundef 1) #11
  br label %68

68:                                               ; preds = %64, %42
  %.139 = phi i64 [ %43, %42 ], [ %67, %64 ]
  %69 = load i8, ptr %2, align 1, !range !6, !noundef !7
  %70 = trunc nuw i8 %69 to i1
  br i1 %70, label %.sink.split, label %72

.sink.split:                                      ; preds = %68, %39, %get_object_attnum_acl.exit, %1, %.thread54
  %71 = getelementptr inbounds nuw i8, ptr %0, i64 28
  store i8 1, ptr %71, align 4
  br label %72

72:                                               ; preds = %.sink.split, %68
  %.0 = phi i64 [ %.139, %68 ], [ 0, %.sink.split ]
  call void @llvm.lifetime.end.p0(i64 1, ptr nonnull %2) #11
  ret i64 %.0
}